	.file	"usingFgets.c"
	.text
.Ltext0:
	.file 0 "/home/k-730/COMP6841/wk2/usingFGets" "usingFgets.c"
	.section	.rodata
.LC0:
	.string	"r"
.LC1:
	.string	"flag.txt"
	.align 4
.LC2:
	.string	"Your payload worked! Your are admin."
	.align 4
.LC3:
	.string	"There is no flag file. If you're seeing this locally, that's okay. Try a remote exploit. If you're seeing this remotely, please contact the admin."
.LC4:
	.string	"Here is your flag:"
.LC5:
	.string	"%s"
	.text
	.globl	printFlag
	.type	printFlag, @function
printFlag:
.LFB6:
	.file 1 "printFlag.c"
	.loc 1 6 17
	.cfi_startproc
	pushl	%ebp
	.cfi_def_cfa_offset 8
	.cfi_offset 5, -8
	movl	%esp, %ebp
	.cfi_def_cfa_register 5
	pushl	%ebx
	subl	$84, %esp
	.cfi_offset 3, -12
	call	__x86.get_pc_thunk.bx
	addl	$_GLOBAL_OFFSET_TABLE_, %ebx
	.loc 1 11 16
	subl	$8, %esp
	leal	.LC0@GOTOFF(%ebx), %eax
	pushl	%eax
	leal	.LC1@GOTOFF(%ebx), %eax
	pushl	%eax
	call	fopen@PLT
	addl	$16, %esp
	movl	%eax, -12(%ebp)
	.loc 1 14 8
	cmpl	$0, -12(%ebp)
	jne	.L2
	.loc 1 15 9
	subl	$12, %esp
	leal	.LC2@GOTOFF(%ebx), %eax
	pushl	%eax
	call	puts@PLT
	addl	$16, %esp
	.loc 1 16 9
	subl	$12, %esp
	leal	.LC3@GOTOFF(%ebx), %eax
	pushl	%eax
	call	puts@PLT
	addl	$16, %esp
.L2:
	.loc 1 20 5
	subl	$12, %esp
	leal	.LC4@GOTOFF(%ebx), %eax
	pushl	%eax
	call	puts@PLT
	addl	$16, %esp
	.loc 1 21 11
	jmp	.L3
.L4:
	.loc 1 22 9
	subl	$8, %esp
	leal	-76(%ebp), %eax
	pushl	%eax
	leal	.LC5@GOTOFF(%ebx), %eax
	pushl	%eax
	call	printf@PLT
	addl	$16, %esp
.L3:
	.loc 1 21 12
	subl	$4, %esp
	pushl	-12(%ebp)
	pushl	$64
	leal	-76(%ebp), %eax
	pushl	%eax
	call	fgets@PLT
	addl	$16, %esp
	.loc 1 21 44
	testl	%eax, %eax
	jne	.L4
	.loc 1 25 5
	subl	$12, %esp
	pushl	-12(%ebp)
	call	fclose@PLT
	addl	$16, %esp
	.loc 1 26 12
	movl	$0, %eax
	.loc 1 27 1
	movl	-4(%ebp), %ebx
	leave
	.cfi_restore 5
	.cfi_restore 3
	.cfi_def_cfa 4, 4
	ret
	.cfi_endproc
.LFE6:
	.size	printFlag, .-printFlag
	.section	.rodata
.LC6:
	.string	"Welcome!"
.LC7:
	.string	"Everything is good."
	.text
	.globl	main
	.type	main, @function
main:
.LFB7:
	.file 2 "usingFgets.c"
	.loc 2 11 33
	.cfi_startproc
	leal	4(%esp), %ecx
	.cfi_def_cfa 1, 0
	andl	$-16, %esp
	pushl	-4(%ecx)
	pushl	%ebp
	movl	%esp, %ebp
	.cfi_escape 0x10,0x5,0x2,0x75,0
	pushl	%ebx
	pushl	%ecx
	.cfi_escape 0xf,0x3,0x75,0x78,0x6
	.cfi_escape 0x10,0x3,0x2,0x75,0x7c
	call	__x86.get_pc_thunk.bx
	addl	$_GLOBAL_OFFSET_TABLE_, %ebx
	.loc 2 13 5
	subl	$12, %esp
	leal	.LC6@GOTOFF(%ebx), %eax
	pushl	%eax
	call	puts@PLT
	addl	$16, %esp
	.loc 2 14 5
	call	printName
	.loc 2 15 5
	subl	$12, %esp
	leal	.LC7@GOTOFF(%ebx), %eax
	pushl	%eax
	call	puts@PLT
	addl	$16, %esp
	.loc 2 17 12
	movl	$0, %eax
	.loc 2 18 1
	leal	-8(%ebp), %esp
	popl	%ecx
	.cfi_restore 1
	.cfi_def_cfa 1, 0
	popl	%ebx
	.cfi_restore 3
	popl	%ebp
	.cfi_restore 5
	leal	-4(%ecx), %esp
	.cfi_def_cfa 4, 4
	ret
	.cfi_endproc
.LFE7:
	.size	main, .-main
	.section	.rodata
.LC8:
	.string	"What is your name?"
.LC9:
	.string	"> "
.LC10:
	.string	"Welcome, %s!\n"
	.align 4
.LC11:
	.string	"You are in this program, but we do not grant you the rank of Admin."
	.align 4
.LC12:
	.string	"Now go away, or I will taunt you a second time."
	.align 4
.LC13:
	.string	"With great power comes great responsibility..."
	.text
	.globl	printName
	.type	printName, @function
printName:
.LFB8:
	.loc 2 20 17
	.cfi_startproc
	pushl	%ebp
	.cfi_def_cfa_offset 8
	.cfi_offset 5, -8
	movl	%esp, %ebp
	.cfi_def_cfa_register 5
	pushl	%ebx
	subl	$36, %esp
	.cfi_offset 3, -12
	call	__x86.get_pc_thunk.bx
	addl	$_GLOBAL_OFFSET_TABLE_, %ebx
	.loc 2 21 9
	movl	$-1, -12(%ebp)
	.loc 2 24 5
	subl	$12, %esp
	leal	.LC8@GOTOFF(%ebx), %eax
	pushl	%eax
	call	puts@PLT
	addl	$16, %esp
	.loc 2 26 5
	subl	$12, %esp
	leal	.LC9@GOTOFF(%ebx), %eax
	pushl	%eax
	call	printf@PLT
	addl	$16, %esp
	.loc 2 27 5
	movl	stdin@GOT(%ebx), %eax
	movl	(%eax), %eax
	subl	$4, %esp
	pushl	%eax
	pushl	$17
	leal	-28(%ebp), %eax
	pushl	%eax
	call	fgets@PLT
	addl	$16, %esp
	.loc 2 29 8
	cmpl	$-1, -12(%ebp)
	jne	.L9
	.loc 2 30 9
	subl	$8, %esp
	leal	-28(%ebp), %eax
	pushl	%eax
	leal	.LC10@GOTOFF(%ebx), %eax
	pushl	%eax
	call	printf@PLT
	addl	$16, %esp
	.loc 2 31 9
	subl	$12, %esp
	leal	.LC11@GOTOFF(%ebx), %eax
	pushl	%eax
	call	puts@PLT
	addl	$16, %esp
	.loc 2 32 9
	subl	$12, %esp
	leal	.LC12@GOTOFF(%ebx), %eax
	pushl	%eax
	call	puts@PLT
	addl	$16, %esp
	jmp	.L10
.L9:
	.loc 2 34 9
	subl	$8, %esp
	leal	-28(%ebp), %eax
	pushl	%eax
	leal	.LC10@GOTOFF(%ebx), %eax
	pushl	%eax
	call	printf@PLT
	addl	$16, %esp
	.loc 2 35 9
	subl	$12, %esp
	leal	.LC13@GOTOFF(%ebx), %eax
	pushl	%eax
	call	puts@PLT
	addl	$16, %esp
	.loc 2 36 9
	call	printFlag
.L10:
	.loc 2 38 12
	movl	$0, %eax
	.loc 2 39 1
	movl	-4(%ebp), %ebx
	leave
	.cfi_restore 5
	.cfi_restore 3
	.cfi_def_cfa 4, 4
	ret
	.cfi_endproc
.LFE8:
	.size	printName, .-printName
	.section	.text.__x86.get_pc_thunk.bx,"axG",@progbits,__x86.get_pc_thunk.bx,comdat
	.globl	__x86.get_pc_thunk.bx
	.hidden	__x86.get_pc_thunk.bx
	.type	__x86.get_pc_thunk.bx, @function
__x86.get_pc_thunk.bx:
.LFB9:
	.cfi_startproc
	movl	(%esp), %ebx
	ret
	.cfi_endproc
.LFE9:
	.text
.Letext0:
	.file 3 "/usr/include/bits/types.h"
	.file 4 "/usr/include/bits/types/struct_FILE.h"
	.file 5 "/usr/include/bits/types/FILE.h"
	.file 6 "/usr/include/stdio.h"
	.section	.note.GNU-stack,"",@progbits
